; Function Attrs: mustprogress uwtable
define void @_ZN10ImDrawList19_OnChangedVtxOffsetEv(ptr noundef nonnull align 8 captures(none) dereferenceable(216) initializes((52, 56)) %0) local_unnamed_addr #12 align 2 {
  %.sroa.0.i = alloca %struct.ImVec4, align 8
  %2 = getelementptr inbounds nuw i8, ptr %0, i64 52
  store i32 0, ptr %2, align 4, !tbaa !59
  %3 = getelementptr inbounds nuw i8, ptr %0, i64 8
  %4 = load ptr, ptr %3, align 8, !tbaa !74
  %5 = load i32, ptr %0, align 8, !tbaa !73
  %6 = sext i32 %5 to i64
  %7 = getelementptr %struct.ImDrawCmd, ptr %4, i64 %6
  %8 = getelementptr i8, ptr %7, i64 -32
  %9 = load i32, ptr %8, align 8, !tbaa !75
  %.not = icmp eq i32 %9, 0
  br i1 %.not, label %42, label %10

10:                                               ; preds = %1
  call void @llvm.lifetime.start.p0(i64 16, ptr nonnull %.sroa.0.i)
  %11 = getelementptr inbounds nuw i8, ptr %0, i64 96
  call void @llvm.memcpy.p0.p0.i64(ptr noundef nonnull align 8 dereferenceable(16) %.sroa.0.i, ptr noundef nonnull align 8 dereferenceable(16) %11, i64 16, i1 false), !tbaa.struct !7
  %12 = getelementptr inbounds nuw i8, ptr %0, i64 112
  %13 = load i64, ptr %12, align 8, !tbaa !90
  %14 = getelementptr inbounds nuw i8, ptr %0, i64 120
  %15 = load i32, ptr %14, align 8, !tbaa !91
  %16 = getelementptr inbounds nuw i8, ptr %0, i64 16
  %17 = load i32, ptr %16, align 8, !tbaa !79
  %18 = getelementptr inbounds nuw i8, ptr %0, i64 4
  %19 = load i32, ptr %18, align 4, !tbaa !52
  %20 = icmp eq i32 %5, %19
  br i1 %20, label %21, label %_ZN10ImDrawList10AddDrawCmdEv.exit

21:                                               ; preds = %10
  %22 = add nsw i32 %5, 1
  %.not.i.i.i = icmp eq i32 %5, 0
  br i1 %.not.i.i.i, label %_ZNK8ImVectorI9ImDrawCmdE14_grow_capacityEi.exit.i.i, label %23

23:                                               ; preds = %21
  %24 = sdiv i32 %5, 2
  %25 = add nsw i32 %24, %5
  br label %_ZNK8ImVectorI9ImDrawCmdE14_grow_capacityEi.exit.i.i

_ZNK8ImVectorI9ImDrawCmdE14_grow_capacityEi.exit.i.i: ; preds = %23, %21
  %26 = phi i32 [ %25, %23 ], [ 8, %21 ]
  %27 = tail call noundef i32 @llvm.smax.i32(i32 %26, i32 %22)
  %28 = sext i32 %27 to i64
  %29 = shl nsw i64 %28, 6
  %30 = tail call noundef ptr @_ZN5ImGui8MemAllocEm(i64 noundef %29)
  %31 = load ptr, ptr %3, align 8, !tbaa !51
  %.not6.i.i.i = icmp eq ptr %31, null
  br i1 %.not6.i.i.i, label %37, label %32

32:                                               ; preds = %_ZNK8ImVectorI9ImDrawCmdE14_grow_capacityEi.exit.i.i
  %33 = load i32, ptr %0, align 8, !tbaa !53
  %34 = sext i32 %33 to i64
  %35 = shl nsw i64 %34, 6
  tail call void @llvm.memcpy.p0.p0.i64(ptr align 8 %30, ptr nonnull align 8 %31, i64 %35, i1 false)
  %36 = load ptr, ptr %3, align 8, !tbaa !51
  tail call void @_ZN5ImGui7MemFreeEPv(ptr noundef %36)
  br label %37

37:                                               ; preds = %32, %_ZNK8ImVectorI9ImDrawCmdE14_grow_capacityEi.exit.i.i
  store ptr %30, ptr %3, align 8, !tbaa !51
  store i32 %27, ptr %18, align 4, !tbaa !52
  %.pre3.i.i = load i32, ptr %0, align 8, !tbaa !53
  %.pre = sext i32 %.pre3.i.i to i64
  br label %_ZN10ImDrawList10AddDrawCmdEv.exit

_ZN10ImDrawList10AddDrawCmdEv.exit:               ; preds = %10, %37
  %.pre-phi = phi i64 [ %6, %10 ], [ %.pre, %37 ]
  %38 = phi ptr [ %4, %10 ], [ %30, %37 ]
  %39 = getelementptr inbounds %struct.ImDrawCmd, ptr %38, i64 %.pre-phi
  call void @llvm.memcpy.p0.p0.i64(ptr noundef nonnull align 8 dereferenceable(16) %39, ptr noundef nonnull align 8 dereferenceable(16) %.sroa.0.i, i64 16, i1 false)
  %.sroa.5.0..sroa_idx.i = getelementptr inbounds nuw i8, ptr %39, i64 16
  store i64 %13, ptr %.sroa.5.0..sroa_idx.i, align 8
  %.sroa.6.0..sroa_idx.i = getelementptr inbounds nuw i8, ptr %39, i64 24
  store i32 %15, ptr %.sroa.6.0..sroa_idx.i, align 8
  %.sroa.7.0..sroa_idx.i = getelementptr inbounds nuw i8, ptr %39, i64 28
  store i32 %17, ptr %.sroa.7.0..sroa_idx.i, align 4
  %.sroa.8.0..sroa_idx.i = getelementptr inbounds nuw i8, ptr %39, i64 32
  tail call void @llvm.memset.p0.i64(ptr noundef nonnull align 8 dereferenceable(32) %.sroa.8.0..sroa_idx.i, i8 0, i64 32, i1 false)
  %40 = load i32, ptr %0, align 8, !tbaa !53
  %41 = add nsw i32 %40, 1
  store i32 %41, ptr %0, align 8, !tbaa !53
  call void @llvm.lifetime.end.p0(i64 16, ptr nonnull %.sroa.0.i)
  br label %46

42:                                               ; preds = %1
  %43 = getelementptr inbounds nuw i8, ptr %0, i64 120
  %44 = load i32, ptr %43, align 8, !tbaa !91
  %45 = getelementptr i8, ptr %7, i64 -40
  store i32 %44, ptr %45, align 8, !tbaa !102
  br label %46

46:                                               ; preds = %42, %_ZN10ImDrawList10AddDrawCmdEv.exit
  ret void
}